; Function Attrs: mustprogress nounwind uwtable
define void @_ZN11SecPassword3GetEPwm(ptr noundef nonnull readonly align 8 captures(none) dereferenceable(25) %0, ptr noundef captures(none) %1, i64 noundef %2) local_unnamed_addr #2 align 2 {
  %4 = getelementptr inbounds nuw i8, ptr %0, i64 24
  %5 = load i8, ptr %4, align 8, !tbaa !11, !range !23, !noundef !24
  %6 = trunc nuw i8 %5 to i1
  br i1 %6, label %7, label %30

7:                                                ; preds = %3
  %8 = load ptr, ptr %0, align 8, !tbaa !3
  %9 = getelementptr inbounds nuw i8, ptr %0, i64 8
  %10 = load ptr, ptr %9, align 8, !tbaa !10
  %11 = ptrtoint ptr %10 to i64
  %12 = ptrtoint ptr %8 to i64
  %13 = sub i64 %11, %12
  %14 = ashr exact i64 %13, 2
  %15 = tail call i64 @llvm.umin.i64(i64 %14, i64 %2)
  %16 = shl i64 %15, 2
  tail call void @llvm.memcpy.p0.p0.i64(ptr align 4 %1, ptr nonnull readonly align 4 %8, i64 %16, i1 false)
  %17 = shl i64 %2, 2
  %18 = tail call i32 @getpid() #15
  %.not.i.i = icmp eq i64 %17, 0
  br i1 %.not.i.i, label %_ZN11SecPassword7ProcessEPKwmPwmb.exit, label %.lr.ph.i.i

.lr.ph.i.i:                                       ; preds = %7
  %19 = zext i32 %18 to i64
  br label %20

20:                                               ; preds = %20, %.lr.ph.i.i
  %.06.i.i = phi i64 [ 0, %.lr.ph.i.i ], [ %27, %20 ]
  %21 = add i64 %.06.i.i, %19
  %22 = getelementptr inbounds nuw i8, ptr %1, i64 %.06.i.i
  %23 = load i8, ptr %22, align 1, !tbaa !17
  %24 = trunc i64 %21 to i8
  %25 = add i8 %24, 75
  %26 = xor i8 %25, %23
  store i8 %26, ptr %22, align 1, !tbaa !17
  %27 = add nuw i64 %.06.i.i, 1
  %exitcond.not.i.i = icmp eq i64 %27, %17
  br i1 %exitcond.not.i.i, label %_ZN11SecPassword7ProcessEPKwmPwmb.exit, label %20, !llvm.loop !22

_ZN11SecPassword7ProcessEPKwmPwmb.exit:           ; preds = %20, %7
  %28 = getelementptr i32, ptr %1, i64 %2
  %29 = getelementptr i8, ptr %28, i64 -4
  store i32 0, ptr %29, align 4, !tbaa !20
  br label %31

30:                                               ; preds = %3
  store i32 0, ptr %1, align 4, !tbaa !20
  br label %31

31:                                               ; preds = %30, %_ZN11SecPassword7ProcessEPKwmPwmb.exit
  ret void
}